; Function Attrs: mustprogress uwtable
define hidden void @_ZNK6Assimp7Blender9Structure7ConvertINS0_5MPolyEEEvRT_RKNS0_12FileDatabaseE(ptr noundef nonnull align 8 dereferenceable(120) %0, ptr noundef nonnull align 8 dereferenceable(27) %1, ptr noundef nonnull align 8 dereferenceable(232) %2) local_unnamed_addr #0 align 2 personality ptr @__gxx_personality_v0 {
  %4 = getelementptr inbounds nuw i8, ptr %1, i64 16
  tail call void @_ZNK6Assimp7Blender9Structure9ReadFieldILi0EiEEvRT0_PKcRKNS0_12FileDatabaseE(ptr noundef nonnull align 8 dereferenceable(120) %0, ptr noundef nonnull align 4 dereferenceable(4) %4, ptr noundef nonnull @.str.225, ptr noundef nonnull align 8 dereferenceable(232) %2)
  %5 = getelementptr inbounds nuw i8, ptr %1, i64 20
  tail call void @_ZNK6Assimp7Blender9Structure9ReadFieldILi0EiEEvRT0_PKcRKNS0_12FileDatabaseE(ptr noundef nonnull align 8 dereferenceable(120) %0, ptr noundef nonnull align 4 dereferenceable(4) %5, ptr noundef nonnull @.str.189, ptr noundef nonnull align 8 dereferenceable(232) %2)
  %6 = getelementptr inbounds nuw i8, ptr %1, i64 24
  tail call void @_ZNK6Assimp7Blender9Structure9ReadFieldILi0EsEEvRT0_PKcRKNS0_12FileDatabaseE(ptr noundef nonnull align 8 dereferenceable(120) %0, ptr noundef nonnull align 2 dereferenceable(2) %6, ptr noundef nonnull @.str.64, ptr noundef nonnull align 8 dereferenceable(232) %2)
  %7 = getelementptr inbounds nuw i8, ptr %1, i64 26
  tail call void @_ZNK6Assimp7Blender9Structure9ReadFieldILi0EcEEvRT0_PKcRKNS0_12FileDatabaseE(ptr noundef nonnull align 8 dereferenceable(120) %0, ptr noundef nonnull align 1 dereferenceable(1) %7, ptr noundef nonnull @.str.51, ptr noundef nonnull align 8 dereferenceable(232) %2)
  %8 = getelementptr inbounds nuw i8, ptr %2, i64 128
  %9 = load ptr, ptr %8, align 8
  %10 = getelementptr inbounds nuw i8, ptr %0, i64 104
  %11 = load i64, ptr %10, align 8
  %12 = getelementptr inbounds nuw i8, ptr %9, i64 24
  %13 = load ptr, ptr %12, align 8
  %14 = getelementptr inbounds i8, ptr %13, i64 %11
  store ptr %14, ptr %12, align 8
  %15 = getelementptr inbounds nuw i8, ptr %9, i64 40
  %16 = load ptr, ptr %15, align 8
  %17 = icmp ugt ptr %14, %16
  br i1 %17, label %18, label %_ZN6Assimp12StreamReaderILb1ELb1EE6IncPtrEl.exit

18:                                               ; preds = %3
  %19 = tail call ptr @__cxa_allocate_exception(i64 16) #23
  invoke void @_ZN17DeadlyImportErrorC2EPKc(ptr noundef nonnull align 8 dereferenceable(16) %19, ptr noundef nonnull @.str.307)
          to label %20 unwind label %21

20:                                               ; preds = %18
  tail call void @__cxa_throw(ptr nonnull %19, ptr nonnull @_ZTI17DeadlyImportError, ptr nonnull @_ZNSt13runtime_errorD2Ev) #24
  unreachable

21:                                               ; preds = %18
  %22 = landingpad { ptr, i32 }
          cleanup
  tail call void @__cxa_free_exception(ptr nonnull %19) #23
  resume { ptr, i32 } %22

_ZN6Assimp12StreamReaderILb1ELb1EE6IncPtrEl.exit: ; preds = %3
  ret void
}